target datalayout = "e-m:e-p270:32:32-p271:32:32-p272:64:64-i64:64-i128:128-f80:128-n8:16:32:64-S128"
target triple = "x86_64-pc-linux-gnu"

%struct.arc4_stream = type { i8, i8, [256 x i8] }

@rs = internal global %struct.arc4_stream zeroinitializer, align 1

; Function Attrs: inlinehint nounwind uwtable
define internal void @arc4_addrandom(ptr noundef %0, i32 noundef %1) #3 {
  %3 = alloca ptr, align 8
  %4 = alloca i32, align 4
  %5 = alloca i32, align 4
  %6 = alloca i8, align 1
  store ptr %0, ptr %3, align 8
  store i32 %1, ptr %4, align 4
  call void @llvm.lifetime.start.p0(i64 4, ptr %5) #6
  call void @llvm.lifetime.start.p0(i64 1, ptr %6) #6
  %7 = load i8, ptr @rs, align 1
  %8 = add i8 %7, -1
  store i8 %8, ptr @rs, align 1
  store i32 0, ptr %5, align 4
  br label %9

9:                                                ; preds = %47, %2
  %10 = load i32, ptr %5, align 4
  %11 = icmp slt i32 %10, 256
  br i1 %11, label %12, label %50

12:                                               ; preds = %9
  %13 = load i8, ptr @rs, align 1
  %14 = zext i8 %13 to i32
  %15 = add nsw i32 %14, 1
  %16 = trunc i32 %15 to i8
  store i8 %16, ptr @rs, align 1
  %17 = load i8, ptr @rs, align 1
  %18 = zext i8 %17 to i64
  %19 = getelementptr inbounds nuw [256 x i8], ptr getelementptr inbounds nuw (%struct.arc4_stream, ptr @rs, i32 0, i32 2), i64 0, i64 %18
  %20 = load i8, ptr %19, align 1
  store i8 %20, ptr %6, align 1
  %21 = load i8, ptr getelementptr inbounds nuw (%struct.arc4_stream, ptr @rs, i32 0, i32 1), align 1
  %22 = zext i8 %21 to i32
  %23 = load i8, ptr %6, align 1
  %24 = zext i8 %23 to i32
  %25 = add nsw i32 %22, %24
  %26 = load ptr, ptr %3, align 8
  %27 = load i32, ptr %5, align 4
  %28 = load i32, ptr %4, align 4
  %29 = srem i32 %27, %28
  %30 = sext i32 %29 to i64
  %31 = getelementptr inbounds i8, ptr %26, i64 %30
  %32 = load i8, ptr %31, align 1
  %33 = zext i8 %32 to i32
  %34 = add nsw i32 %25, %33
  %35 = trunc i32 %34 to i8
  store i8 %35, ptr getelementptr inbounds nuw (%struct.arc4_stream, ptr @rs, i32 0, i32 1), align 1
  %36 = load i8, ptr getelementptr inbounds nuw (%struct.arc4_stream, ptr @rs, i32 0, i32 1), align 1
  %37 = zext i8 %36 to i64
  %38 = getelementptr inbounds nuw [256 x i8], ptr getelementptr inbounds nuw (%struct.arc4_stream, ptr @rs, i32 0, i32 2), i64 0, i64 %37
  %39 = load i8, ptr %38, align 1
  %40 = load i8, ptr @rs, align 1
  %41 = zext i8 %40 to i64
  %42 = getelementptr inbounds nuw [256 x i8], ptr getelementptr inbounds nuw (%struct.arc4_stream, ptr @rs, i32 0, i32 2), i64 0, i64 %41
  store i8 %39, ptr %42, align 1
  %43 = load i8, ptr %6, align 1
  %44 = load i8, ptr getelementptr inbounds nuw (%struct.arc4_stream, ptr @rs, i32 0, i32 1), align 1
  %45 = zext i8 %44 to i64
  %46 = getelementptr inbounds nuw [256 x i8], ptr getelementptr inbounds nuw (%struct.arc4_stream, ptr @rs, i32 0, i32 2), i64 0, i64 %45
  store i8 %43, ptr %46, align 1
  br label %47

47:                                               ; preds = %12
  %48 = load i32, ptr %5, align 4
  %49 = add nsw i32 %48, 1
  store i32 %49, ptr %5, align 4
  br label %9, !llvm.loop !11

50:                                               ; preds = %9
  %51 = load i8, ptr @rs, align 1
  store i8 %51, ptr getelementptr inbounds nuw (%struct.arc4_stream, ptr @rs, i32 0, i32 1), align 1
  call void @llvm.lifetime.end.p0(i64 1, ptr %6) #6
  call void @llvm.lifetime.end.p0(i64 4, ptr %5) #6
  ret void
}

; Function Attrs: nounwind uwtable
define internal i64 @read_all(i32 noundef %0, ptr noundef %1, i64 noundef %2) #0 {
  %4 = alloca i64, align 8
  %5 = alloca i32, align 4
  %6 = alloca ptr, align 8
  %7 = alloca i64, align 8
  %8 = alloca i64, align 8
  %9 = alloca i64, align 8
  %10 = alloca i32, align 4
  store i32 %0, ptr %5, align 4
  store ptr %1, ptr %6, align 8
  store i64 %2, ptr %7, align 8
  call void @llvm.lifetime.start.p0(i64 8, ptr %8) #6
  store i64 0, ptr %8, align 8
  call void @llvm.lifetime.start.p0(i64 8, ptr %9) #6
  br label %11

11:                                               ; preds = %32, %3
  %12 = load i64, ptr %8, align 8
  %13 = load i64, ptr %7, align 8
  %14 = icmp ult i64 %12, %13
  br i1 %14, label %15, label %36

15:                                               ; preds = %11
  %16 = load i32, ptr %5, align 4
  %17 = load ptr, ptr %6, align 8
  %18 = load i64, ptr %8, align 8
  %19 = getelementptr inbounds nuw i8, ptr %17, i64 %18
  %20 = load i64, ptr %7, align 8
  %21 = load i64, ptr %8, align 8
  %22 = sub i64 %20, %21
  %23 = call i64 @read(i32 noundef %16, ptr noundef %19, i64 noundef %22)
  store i64 %23, ptr %9, align 8
  %24 = load i64, ptr %9, align 8
  %25 = icmp slt i64 %24, 0
  br i1 %25, label %26, label %27

26:                                               ; preds = %15
  store i64 -1, ptr %4, align 8
  store i32 1, ptr %10, align 4
  br label %38

27:                                               ; preds = %15
  %28 = load i64, ptr %9, align 8
  %29 = icmp eq i64 %28, 0
  br i1 %29, label %30, label %31

30:                                               ; preds = %27
  br label %36

31:                                               ; preds = %27
  br label %32

32:                                               ; preds = %31
  %33 = load i64, ptr %9, align 8
  %34 = load i64, ptr %8, align 8
  %35 = add i64 %34, %33
  store i64 %35, ptr %8, align 8
  br label %11, !llvm.loop !12

36:                                               ; preds = %30, %11
  %37 = load i64, ptr %8, align 8
  store i64 %37, ptr %4, align 8
  store i32 1, ptr %10, align 4
  br label %38

38:                                               ; preds = %36, %26
  call void @llvm.lifetime.end.p0(i64 8, ptr %9) #6
  call void @llvm.lifetime.end.p0(i64 8, ptr %8) #6
  %39 = load i64, ptr %4, align 8
  ret i64 %39
}

; Function Attrs: nounwind uwtable
define internal i32 @arc4_seed_urandom_helper_(ptr noundef %0) #0 {
  %2 = alloca i32, align 4
  %3 = alloca ptr, align 8
  %4 = alloca [32 x i8], align 16
  %5 = alloca i32, align 4
  %6 = alloca i64, align 8
  %7 = alloca i32, align 4
  store ptr %0, ptr %3, align 8
  call void @llvm.lifetime.start.p0(i64 32, ptr %4) #6
  call void @llvm.lifetime.start.p0(i64 4, ptr %5) #6
  call void @llvm.lifetime.start.p0(i64 8, ptr %6) #6
  %8 = load ptr, ptr %3, align 8
  %9 = call i32 @evutil_open_closeonexec_(ptr noundef %8, i32 noundef 0, i32 noundef 0)
  store i32 %9, ptr %5, align 4
  %10 = load i32, ptr %5, align 4
  %11 = icmp slt i32 %10, 0
  br i1 %11, label %12, label %13

12:                                               ; preds = %1
  store i32 -1, ptr %2, align 4
  store i32 1, ptr %7, align 4
  br label %25

13:                                               ; preds = %1
  %14 = load i32, ptr %5, align 4
  %15 = getelementptr inbounds [32 x i8], ptr %4, i64 0, i64 0
  %16 = call i64 @read_all(i32 noundef %14, ptr noundef %15, i64 noundef 32)
  store i64 %16, ptr %6, align 8
  %17 = load i32, ptr %5, align 4
  %18 = call i32 @close(i32 noundef %17)
  %19 = load i64, ptr %6, align 8
  %20 = icmp ne i64 %19, 32
  br i1 %20, label %21, label %22

21:                                               ; preds = %13
  store i32 -1, ptr %2, align 4
  store i32 1, ptr %7, align 4
  br label %25

22:                                               ; preds = %13
  %23 = getelementptr inbounds [32 x i8], ptr %4, i64 0, i64 0
  call void @arc4_addrandom(ptr noundef %23, i32 noundef 32)
  %24 = getelementptr inbounds [32 x i8], ptr %4, i64 0, i64 0
  call void @evutil_memclear_(ptr noundef %24, i64 noundef 32)
  store i32 0, ptr %2, align 4
  store i32 1, ptr %7, align 4
  br label %25

25:                                               ; preds = %22, %21, %12
  call void @llvm.lifetime.end.p0(i64 8, ptr %6) #6
  call void @llvm.lifetime.end.p0(i64 4, ptr %5) #6
  call void @llvm.lifetime.end.p0(i64 32, ptr %4) #6
  %26 = load i32, ptr %2, align 4
  ret i32 %26
}