; Function Attrs: nounwind uwtable
define internal fastcc range(i32 -1, 1) i32 @arc4_seed_urandom_helper_(ptr noundef nonnull %0) unnamed_addr #0 {
  %2 = alloca [32 x i8], align 16
  call void @llvm.lifetime.start.p0(i64 32, ptr nonnull %2) #7
  %3 = tail call i32 @evutil_open_closeonexec_(ptr noundef nonnull %0, i32 noundef 0, i32 noundef 0) #7
  %4 = icmp slt i32 %3, 0
  br i1 %4, label %33, label %.preheader

5:                                                ; preds = %.preheader
  %6 = add nuw i64 %10, %.01215.i
  %7 = icmp ult i64 %6, 32
  br i1 %7, label %.preheader, label %read_all.exit, !llvm.loop !13

.preheader:                                       ; preds = %1, %5
  %.01215.i = phi i64 [ %6, %5 ], [ 0, %1 ]
  %8 = getelementptr inbounds nuw i8, ptr %2, i64 %.01215.i
  %9 = sub nuw nsw i64 32, %.01215.i
  %10 = call i64 @read(i32 noundef range(i32 0, -2147483648) %3, ptr noundef nonnull %8, i64 noundef %9) #7
  %or.cond = icmp slt i64 %10, 1
  br i1 %or.cond, label %read_all.exit.thread, label %5

read_all.exit.thread:                             ; preds = %.preheader
  %11 = tail call i32 @close(i32 noundef %3) #7
  br label %33

read_all.exit:                                    ; preds = %5
  %12 = tail call i32 @close(i32 noundef %3) #7
  %.not = icmp eq i64 %6, 32
  br i1 %.not, label %13, label %33

13:                                               ; preds = %read_all.exit
  %14 = load i8, ptr @rs, align 1
  %15 = add i8 %14, -1
  %.promoted.i = load i8, ptr getelementptr inbounds nuw (i8, ptr @rs, i64 1), align 1
  br label %16

16:                                               ; preds = %16, %13
  %.07.i = phi i32 [ 0, %13 ], [ %32, %16 ]
  %17 = phi i8 [ %15, %13 ], [ %19, %16 ]
  %18 = phi i8 [ %.promoted.i, %13 ], [ %28, %16 ]
  %19 = add i8 %17, 1
  %20 = zext i8 %19 to i64
  %21 = getelementptr inbounds nuw [256 x i8], ptr getelementptr inbounds nuw (i8, ptr @rs, i64 2), i64 0, i64 %20
  %22 = load i8, ptr %21, align 1
  %23 = add i8 %22, %18
  %24 = and i32 %.07.i, 31
  %25 = zext nneg i32 %24 to i64
  %26 = getelementptr inbounds nuw i8, ptr %2, i64 %25
  %27 = load i8, ptr %26, align 1
  %28 = add i8 %23, %27
  %29 = zext i8 %28 to i64
  %30 = getelementptr inbounds nuw [256 x i8], ptr getelementptr inbounds nuw (i8, ptr @rs, i64 2), i64 0, i64 %29
  %31 = load i8, ptr %30, align 1
  store i8 %31, ptr %21, align 1
  store i8 %22, ptr %30, align 1
  %32 = add nuw nsw i32 %.07.i, 1
  %exitcond.not.i = icmp eq i32 %32, 256
  br i1 %exitcond.not.i, label %arc4_addrandom.exit, label %16, !llvm.loop !6

arc4_addrandom.exit:                              ; preds = %16
  store i8 %19, ptr @rs, align 1
  store i8 %19, ptr getelementptr inbounds nuw (i8, ptr @rs, i64 1), align 1
  call void @evutil_memclear_(ptr noundef nonnull %2, i64 noundef 32) #7
  br label %33

33:                                               ; preds = %read_all.exit.thread, %read_all.exit, %1, %arc4_addrandom.exit
  %.0 = phi i32 [ 0, %arc4_addrandom.exit ], [ -1, %1 ], [ -1, %read_all.exit ], [ -1, %read_all.exit.thread ]
  call void @llvm.lifetime.end.p0(i64 32, ptr nonnull %2) #7
  ret i32 %.0
}